target datalayout = "e-m:e-p270:32:32-p271:32:32-p272:64:64-i64:64-i128:128-f80:128-n8:16:32:64-S128"
target triple = "x86_64-pc-linux-gnu"

%"class.icu_77::UObject" = type { ptr }
%"class.icu_77::Calendar" = type <{ %"class.icu_77::UObject", [24 x i32], [24 x i8], i8, [7 x i8], double, ptr, i8, i16, i8, i32, i32, i32, i8, i8, i16, [4 x i8], ptr, ptr }>

; Function Attrs: mustprogress uwtable
define void @_ZN6icu_778Calendar5clearE19UCalendarDateFields(ptr noundef nonnull align 8 dereferenceable(192) %0, i32 noundef %1) #1 align 2 {
  %3 = alloca ptr, align 8
  %4 = alloca i32, align 4
  %5 = alloca i32, align 4
  store ptr %0, ptr %3, align 8, !tbaa !37
  store i32 %1, ptr %4, align 4, !tbaa !106
  %6 = load ptr, ptr %3, align 8
  %7 = load i32, ptr %4, align 4, !tbaa !106
  %8 = icmp slt i32 %7, 0
  br i1 %8, label %12, label %9

9:                                                ; preds = %2
  %10 = load i32, ptr %4, align 4, !tbaa !106
  %11 = icmp sge i32 %10, 24
  br i1 %11, label %12, label %13

12:                                               ; preds = %9, %2
  br label %64

13:                                               ; preds = %9
  %14 = getelementptr inbounds nuw %"class.icu_77::Calendar", ptr %6, i32 0, i32 7
  %15 = load i8, ptr %14, align 8
  %16 = lshr i8 %15, 3
  %17 = and i8 %16, 1
  %18 = trunc i8 %17 to i1
  br i1 %18, label %19, label %23

19:                                               ; preds = %13
  call void @llvm.lifetime.start.p0(i64 4, ptr %5) #16
  store i32 0, ptr %5, align 4, !tbaa !15
  %20 = load ptr, ptr %6, align 8, !tbaa !25
  %21 = getelementptr inbounds ptr, ptr %20, i64 32
  %22 = load ptr, ptr %21, align 8
  call void %22(ptr noundef nonnull align 8 dereferenceable(192) %6, ptr noundef nonnull align 4 dereferenceable(4) %5)
  call void @llvm.lifetime.end.p0(i64 4, ptr %5) #16
  br label %23

23:                                               ; preds = %19, %13
  %24 = getelementptr inbounds nuw %"class.icu_77::Calendar", ptr %6, i32 0, i32 1
  %25 = load i32, ptr %4, align 4, !tbaa !106
  %26 = zext i32 %25 to i64
  %27 = getelementptr inbounds nuw [24 x i32], ptr %24, i64 0, i64 %26
  store i32 0, ptr %27, align 4, !tbaa !14
  %28 = getelementptr inbounds nuw %"class.icu_77::Calendar", ptr %6, i32 0, i32 2
  %29 = load i32, ptr %4, align 4, !tbaa !106
  %30 = zext i32 %29 to i64
  %31 = getelementptr inbounds nuw [24 x i8], ptr %28, i64 0, i64 %30
  store i8 0, ptr %31, align 1, !tbaa !70
  %32 = load i32, ptr %4, align 4, !tbaa !106
  %33 = icmp eq i32 %32, 2
  br i1 %33, label %34, label %39

34:                                               ; preds = %23
  %35 = getelementptr inbounds nuw %"class.icu_77::Calendar", ptr %6, i32 0, i32 1
  %36 = getelementptr inbounds nuw [24 x i32], ptr %35, i64 0, i64 23
  store i32 0, ptr %36, align 4, !tbaa !14
  %37 = getelementptr inbounds nuw %"class.icu_77::Calendar", ptr %6, i32 0, i32 2
  %38 = getelementptr inbounds nuw [24 x i8], ptr %37, i64 0, i64 23
  store i8 0, ptr %38, align 1, !tbaa !70
  br label %39

39:                                               ; preds = %34, %23
  %40 = load i32, ptr %4, align 4, !tbaa !106
  %41 = icmp eq i32 %40, 23
  br i1 %41, label %42, label %47

42:                                               ; preds = %39
  %43 = getelementptr inbounds nuw %"class.icu_77::Calendar", ptr %6, i32 0, i32 1
  %44 = getelementptr inbounds nuw [24 x i32], ptr %43, i64 0, i64 2
  store i32 0, ptr %44, align 8, !tbaa !14
  %45 = getelementptr inbounds nuw %"class.icu_77::Calendar", ptr %6, i32 0, i32 2
  %46 = getelementptr inbounds nuw [24 x i8], ptr %45, i64 0, i64 2
  store i8 0, ptr %46, align 2, !tbaa !70
  br label %47

47:                                               ; preds = %42, %39
  %48 = getelementptr inbounds nuw %"class.icu_77::Calendar", ptr %6, i32 0, i32 7
  %49 = load i8, ptr %48, align 8
  %50 = and i8 %49, -9
  %51 = or i8 %50, 0
  store i8 %51, ptr %48, align 8
  %52 = getelementptr inbounds nuw %"class.icu_77::Calendar", ptr %6, i32 0, i32 7
  %53 = load i8, ptr %52, align 8
  %54 = and i8 %53, -5
  %55 = or i8 %54, 0
  store i8 %55, ptr %52, align 8
  %56 = getelementptr inbounds nuw %"class.icu_77::Calendar", ptr %6, i32 0, i32 7
  %57 = load i8, ptr %56, align 8
  %58 = and i8 %57, -3
  %59 = or i8 %58, 0
  store i8 %59, ptr %56, align 8
  %60 = getelementptr inbounds nuw %"class.icu_77::Calendar", ptr %6, i32 0, i32 7
  %61 = load i8, ptr %60, align 8
  %62 = and i8 %61, -2
  %63 = or i8 %62, 0
  store i8 %63, ptr %60, align 8
  br label %64

64:                                               ; preds = %47, %12
  ret void
}