; Function Attrs: mustprogress uwtable
define void @_ZN6icu_778Calendar5clearE19UCalendarDateFields(ptr noundef nonnull align 8 dereferenceable(192) %0, i32 noundef %1) local_unnamed_addr #1 align 2 {
  %3 = alloca i32, align 4
  %or.cond = icmp ugt i32 %1, 23
  br i1 %or.cond, label %27, label %4

4:                                                ; preds = %2
  %5 = getelementptr inbounds nuw i8, ptr %0, i64 152
  %6 = load i8, ptr %5, align 8
  %7 = and i8 %6, 8
  %.not = icmp eq i8 %7, 0
  br i1 %.not, label %12, label %8

8:                                                ; preds = %4
  call void @llvm.lifetime.start.p0(i64 4, ptr nonnull %3) #25
  store i32 0, ptr %3, align 4, !tbaa !13
  %9 = load ptr, ptr %0, align 8, !tbaa !15
  %10 = getelementptr inbounds nuw i8, ptr %9, i64 256
  %11 = load ptr, ptr %10, align 8
  call void %11(ptr noundef nonnull align 8 dereferenceable(192) %0, ptr noundef nonnull align 4 dereferenceable(4) %3)
  call void @llvm.lifetime.end.p0(i64 4, ptr nonnull %3) #25
  br label %12

12:                                               ; preds = %8, %4
  %13 = getelementptr inbounds nuw i8, ptr %0, i64 8
  %14 = zext nneg i32 %1 to i64
  %15 = getelementptr inbounds nuw [24 x i32], ptr %13, i64 0, i64 %14
  store i32 0, ptr %15, align 4, !tbaa !12
  %16 = getelementptr inbounds nuw i8, ptr %0, i64 104
  %17 = getelementptr inbounds nuw [24 x i8], ptr %16, i64 0, i64 %14
  store i8 0, ptr %17, align 1, !tbaa !47
  switch i32 %1, label %24 [
    i32 2, label %18
    i32 23, label %21
  ]

18:                                               ; preds = %12
  %19 = getelementptr inbounds nuw i8, ptr %0, i64 100
  store i32 0, ptr %19, align 4, !tbaa !12
  %20 = getelementptr inbounds nuw i8, ptr %0, i64 127
  store i8 0, ptr %20, align 1, !tbaa !47
  br label %24

21:                                               ; preds = %12
  %22 = getelementptr inbounds nuw i8, ptr %0, i64 16
  store i32 0, ptr %22, align 8, !tbaa !12
  %23 = getelementptr inbounds nuw i8, ptr %0, i64 106
  store i8 0, ptr %23, align 2, !tbaa !47
  br label %24

24:                                               ; preds = %18, %12, %21
  %25 = load i8, ptr %5, align 8
  %26 = and i8 %25, -16
  store i8 %26, ptr %5, align 8
  br label %27

27:                                               ; preds = %2, %24
  ret void
}